target datalayout = "e-m:e-p270:32:32-p271:32:32-p272:64:64-i64:64-i128:128-f80:128-n8:16:32:64-S128"
target triple = "x86_64-pc-linux-gnu"

%"struct.llvm::Align" = type { i8 }
%"class.llvm::Register" = type { i32 }
%"class.llvm::X86FrameLowering" = type <{ %"class.llvm::TargetFrameLowering.base", [3 x i8], ptr, ptr, ptr, i32, i8, i8, i8, i8, i32, [4 x i8] }>
%"class.llvm::TargetFrameLowering.base" = type <{ ptr, i32, %"struct.llvm::Align", %"struct.llvm::Align", [2 x i8], i32, i8 }>
%"struct.std::_Rb_tree_header" = type { %"struct.std::_Rb_tree_node_base", i64 }
%"struct.std::_Rb_tree_node_base" = type { i32, ptr, ptr, ptr }
%"class.llvm::MachineFunction" = type <{ ptr, ptr, ptr, ptr, ptr, ptr, ptr, ptr, ptr, ptr, ptr, ptr, %"class.std::vector.49", i32, [4 x i8], %"class.llvm::BumpPtrAllocatorImpl", %"class.llvm::Recycler", %"class.llvm::ArrayRecycler", %"class.llvm::Recycler.65", %"class.llvm::iplist", i32, %"struct.llvm::Align", i8, i8, i8, %"class.llvm::MachineFunctionProperties", %"class.std::unique_ptr.66", %"class.std::vector.74", %"class.std::vector.79", %"class.std::vector.79", %"class.std::vector.84", %"class.llvm::DenseMap.89", %"class.llvm::DenseMap.92", %"class.llvm::DenseMap.95", %"class.std::vector.98", i8, i8, i8, i8, i8, i8, [2 x i8], i32, i32, %"class.std::vector.103", %"class.std::vector.108", %"class.std::vector.108", i32, [4 x i8], ptr, ptr, %"class.llvm::DenseMap.113", %"class.llvm::SmallVector.116", i32, [4 x i8], %"class.llvm::SmallVector.121", %"class.llvm::DenseMap.126", i8, [7 x i8] }>
%"class.std::vector.49" = type { %"struct.std::_Vector_base.50" }
%"struct.std::_Vector_base.50" = type { %"struct.std::_Vector_base<llvm::MachineBasicBlock *, std::allocator<llvm::MachineBasicBlock *>>::_Vector_impl" }
%"struct.std::_Vector_base<llvm::MachineBasicBlock *, std::allocator<llvm::MachineBasicBlock *>>::_Vector_impl" = type { %"struct.std::_Vector_base<llvm::MachineBasicBlock *, std::allocator<llvm::MachineBasicBlock *>>::_Vector_impl_data" }
%"struct.std::_Vector_base<llvm::MachineBasicBlock *, std::allocator<llvm::MachineBasicBlock *>>::_Vector_impl_data" = type { ptr, ptr, ptr }
%"class.llvm::BumpPtrAllocatorImpl" = type { ptr, ptr, %"class.llvm::SmallVector", %"class.llvm::SmallVector.55", i64, i64 }
%"class.llvm::SmallVector" = type { %"class.llvm::SmallVectorImpl", %"struct.llvm::SmallVectorStorage" }
%"class.llvm::SmallVectorImpl" = type { %"class.llvm::SmallVectorTemplateBase" }
%"class.llvm::SmallVectorTemplateBase" = type { %"class.llvm::SmallVectorTemplateCommon" }
%"class.llvm::SmallVectorTemplateCommon" = type { %"class.llvm::SmallVectorBase" }
%"class.llvm::SmallVectorBase" = type { ptr, i32, i32 }
%"struct.llvm::SmallVectorStorage" = type { [32 x i8] }
%"class.llvm::SmallVector.55" = type { %"class.llvm::SmallVectorImpl.56" }
%"class.llvm::SmallVectorImpl.56" = type { %"class.llvm::SmallVectorTemplateBase.57" }
%"class.llvm::SmallVectorTemplateBase.57" = type { %"class.llvm::SmallVectorTemplateCommon.58" }
%"class.llvm::SmallVectorTemplateCommon.58" = type { %"class.llvm::SmallVectorBase" }
%"class.llvm::Recycler" = type { ptr }
%"class.llvm::ArrayRecycler" = type { %"class.llvm::SmallVector.60" }
%"class.llvm::SmallVector.60" = type { %"class.llvm::SmallVectorImpl.61", %"struct.llvm::SmallVectorStorage.64" }
%"class.llvm::SmallVectorImpl.61" = type { %"class.llvm::SmallVectorTemplateBase.62" }
%"class.llvm::SmallVectorTemplateBase.62" = type { %"class.llvm::SmallVectorTemplateCommon.63" }
%"class.llvm::SmallVectorTemplateCommon.63" = type { %"class.llvm::SmallVectorBase" }
%"struct.llvm::SmallVectorStorage.64" = type { [64 x i8] }
%"class.llvm::Recycler.65" = type { ptr }
%"class.llvm::iplist" = type { %"class.llvm::iplist_impl" }
%"class.llvm::iplist_impl" = type { %"class.llvm::simple_ilist" }
%"class.llvm::simple_ilist" = type { %"class.llvm::ilist_sentinel" }
%"class.llvm::ilist_sentinel" = type { %"class.llvm::ilist_node_impl" }
%"class.llvm::ilist_node_impl" = type { %"class.llvm::ilist_node_base" }
%"class.llvm::ilist_node_base" = type { %"class.llvm::ilist_detail::node_base_prevnext" }
%"class.llvm::ilist_detail::node_base_prevnext" = type { ptr, ptr }
%"class.llvm::MachineFunctionProperties" = type { %"class.std::bitset" }
%"class.std::bitset" = type { %"struct.std::_Base_bitset" }
%"struct.std::_Base_bitset" = type { i64 }
%"class.std::unique_ptr.66" = type { %"struct.std::__uniq_ptr_data.67" }
%"struct.std::__uniq_ptr_data.67" = type { %"class.std::__uniq_ptr_impl.68" }
%"class.std::__uniq_ptr_impl.68" = type { %"class.std::tuple.69" }
%"class.std::tuple.69" = type { %"struct.std::_Tuple_impl.70" }
%"struct.std::_Tuple_impl.70" = type { %"struct.std::_Head_base.73" }
%"struct.std::_Head_base.73" = type { ptr }
%"class.std::vector.74" = type { %"struct.std::_Vector_base.75" }
%"struct.std::_Vector_base.75" = type { %"struct.std::_Vector_base<llvm::MCCFIInstruction, std::allocator<llvm::MCCFIInstruction>>::_Vector_impl" }
%"struct.std::_Vector_base<llvm::MCCFIInstruction, std::allocator<llvm::MCCFIInstruction>>::_Vector_impl" = type { %"struct.std::_Vector_base<llvm::MCCFIInstruction, std::allocator<llvm::MCCFIInstruction>>::_Vector_impl_data" }
%"struct.std::_Vector_base<llvm::MCCFIInstruction, std::allocator<llvm::MCCFIInstruction>>::_Vector_impl_data" = type { ptr, ptr, ptr }
%"class.std::vector.79" = type { %"struct.std::_Vector_base.80" }
%"struct.std::_Vector_base.80" = type { %"struct.std::_Vector_base<llvm::MCSymbol *, std::allocator<llvm::MCSymbol *>>::_Vector_impl" }
%"struct.std::_Vector_base<llvm::MCSymbol *, std::allocator<llvm::MCSymbol *>>::_Vector_impl" = type { %"struct.std::_Vector_base<llvm::MCSymbol *, std::allocator<llvm::MCSymbol *>>::_Vector_impl_data" }
%"struct.std::_Vector_base<llvm::MCSymbol *, std::allocator<llvm::MCSymbol *>>::_Vector_impl_data" = type { ptr, ptr, ptr }
%"class.std::vector.84" = type { %"struct.std::_Vector_base.85" }
%"struct.std::_Vector_base.85" = type { %"struct.std::_Vector_base<llvm::LandingPadInfo, std::allocator<llvm::LandingPadInfo>>::_Vector_impl" }
%"struct.std::_Vector_base<llvm::LandingPadInfo, std::allocator<llvm::LandingPadInfo>>::_Vector_impl" = type { %"struct.std::_Vector_base<llvm::LandingPadInfo, std::allocator<llvm::LandingPadInfo>>::_Vector_impl_data" }
%"struct.std::_Vector_base<llvm::LandingPadInfo, std::allocator<llvm::LandingPadInfo>>::_Vector_impl_data" = type { ptr, ptr, ptr }
%"class.llvm::DenseMap.89" = type <{ ptr, i32, i32, i32, [4 x i8] }>
%"class.llvm::DenseMap.92" = type <{ ptr, i32, i32, i32, [4 x i8] }>
%"class.llvm::DenseMap.95" = type <{ ptr, i32, i32, i32, [4 x i8] }>
%"class.std::vector.98" = type { %"struct.std::_Vector_base.99" }
%"struct.std::_Vector_base.99" = type { %"struct.std::_Vector_base<std::pair<llvm::MCSymbol *, llvm::MDNode *>, std::allocator<std::pair<llvm::MCSymbol *, llvm::MDNode *>>>::_Vector_impl" }
%"struct.std::_Vector_base<std::pair<llvm::MCSymbol *, llvm::MDNode *>, std::allocator<std::pair<llvm::MCSymbol *, llvm::MDNode *>>>::_Vector_impl" = type { %"struct.std::_Vector_base<std::pair<llvm::MCSymbol *, llvm::MDNode *>, std::allocator<std::pair<llvm::MCSymbol *, llvm::MDNode *>>>::_Vector_impl_data" }
%"struct.std::_Vector_base<std::pair<llvm::MCSymbol *, llvm::MDNode *>, std::allocator<std::pair<llvm::MCSymbol *, llvm::MDNode *>>>::_Vector_impl_data" = type { ptr, ptr, ptr }
%"class.std::vector.103" = type { %"struct.std::_Vector_base.104" }
%"struct.std::_Vector_base.104" = type { %"struct.std::_Vector_base<const llvm::GlobalValue *, std::allocator<const llvm::GlobalValue *>>::_Vector_impl" }
%"struct.std::_Vector_base<const llvm::GlobalValue *, std::allocator<const llvm::GlobalValue *>>::_Vector_impl" = type { %"struct.std::_Vector_base<const llvm::GlobalValue *, std::allocator<const llvm::GlobalValue *>>::_Vector_impl_data" }
%"struct.std::_Vector_base<const llvm::GlobalValue *, std::allocator<const llvm::GlobalValue *>>::_Vector_impl_data" = type { ptr, ptr, ptr }
%"class.std::vector.108" = type { %"struct.std::_Vector_base.109" }
%"struct.std::_Vector_base.109" = type { %"struct.std::_Vector_base<unsigned int, std::allocator<unsigned int>>::_Vector_impl" }
%"struct.std::_Vector_base<unsigned int, std::allocator<unsigned int>>::_Vector_impl" = type { %"struct.std::_Vector_base<unsigned int, std::allocator<unsigned int>>::_Vector_impl_data" }
%"struct.std::_Vector_base<unsigned int, std::allocator<unsigned int>>::_Vector_impl_data" = type { ptr, ptr, ptr }
%"class.llvm::DenseMap.113" = type <{ ptr, i32, i32, i32, [4 x i8] }>
%"class.llvm::SmallVector.116" = type { %"class.llvm::SmallVectorImpl.117", %"struct.llvm::SmallVectorStorage.120" }
%"class.llvm::SmallVectorImpl.117" = type { %"class.llvm::SmallVectorTemplateBase.118" }
%"class.llvm::SmallVectorTemplateBase.118" = type { %"class.llvm::SmallVectorTemplateCommon.119" }
%"class.llvm::SmallVectorTemplateCommon.119" = type { %"class.llvm::SmallVectorBase" }
%"struct.llvm::SmallVectorStorage.120" = type { [128 x i8] }
%"class.llvm::SmallVector.121" = type { %"class.llvm::SmallVectorImpl.122", %"struct.llvm::SmallVectorStorage.125" }
%"class.llvm::SmallVectorImpl.122" = type { %"class.llvm::SmallVectorTemplateBase.123" }
%"class.llvm::SmallVectorTemplateBase.123" = type { %"class.llvm::SmallVectorTemplateCommon.124" }
%"class.llvm::SmallVectorTemplateCommon.124" = type { %"class.llvm::SmallVectorBase" }
%"struct.llvm::SmallVectorStorage.125" = type { [160 x i8] }
%"class.llvm::DenseMap.126" = type <{ ptr, i32, i32, i32, [4 x i8] }>
%"class.llvm::X86MachineFunctionInfo" = type { %"struct.llvm::MachineFunctionInfo", i8, i8, [6 x i8], %"class.llvm::DenseMap.144", i32, i32, i32, i32, i32, %"class.llvm::Register", %"class.llvm::Register", i32, i32, i32, i32, i32, i32, i8, i8, i32, i32, i8, i8, i8, i8, i8, i8, %"class.std::set", i8, ptr, %"class.std::optional.152", %"class.llvm::DenseMap.158", %"class.llvm::SmallVector.161", %"class.llvm::SmallVector.166", i8, i8, i8, i8, %"class.llvm::SmallVector.171" }
%"struct.llvm::MachineFunctionInfo" = type { ptr }
%"class.llvm::DenseMap.144" = type <{ ptr, i32, i32, i32, [4 x i8] }>
%"class.std::set" = type { %"class.std::_Rb_tree.147" }
%"class.std::_Rb_tree.147" = type { %"struct.std::_Rb_tree<llvm::Register, llvm::Register, std::_Identity<llvm::Register>, std::less<llvm::Register>>::_Rb_tree_impl" }
%"struct.std::_Rb_tree<llvm::Register, llvm::Register, std::_Identity<llvm::Register>, std::less<llvm::Register>>::_Rb_tree_impl" = type { [8 x i8], %"struct.std::_Rb_tree_header" }
%"class.std::optional.152" = type { %"struct.std::_Optional_base.153" }
%"struct.std::_Optional_base.153" = type { %"struct.std::_Optional_payload.155" }
%"struct.std::_Optional_payload.155" = type { %"struct.std::_Optional_payload_base.base", [3 x i8] }
%"struct.std::_Optional_payload_base.base" = type <{ %"union.std::_Optional_payload_base<int>::_Storage", i8 }>
%"union.std::_Optional_payload_base<int>::_Storage" = type { i32 }
%"class.llvm::DenseMap.158" = type <{ ptr, i32, i32, i32, [4 x i8] }>
%"class.llvm::SmallVector.161" = type { %"class.llvm::SmallVectorImpl.162" }
%"class.llvm::SmallVectorImpl.162" = type { %"class.llvm::SmallVectorTemplateBase.163" }
%"class.llvm::SmallVectorTemplateBase.163" = type { %"class.llvm::SmallVectorTemplateCommon.164" }
%"class.llvm::SmallVectorTemplateCommon.164" = type { %"class.llvm::SmallVectorBase" }
%"class.llvm::SmallVector.166" = type { %"class.llvm::SmallVectorImpl.167" }
%"class.llvm::SmallVectorImpl.167" = type { %"class.llvm::SmallVectorTemplateBase.168" }
%"class.llvm::SmallVectorTemplateBase.168" = type { %"class.llvm::SmallVectorTemplateCommon.169" }
%"class.llvm::SmallVectorTemplateCommon.169" = type { %"class.llvm::SmallVectorBase" }
%"class.llvm::SmallVector.171" = type { %"class.llvm::SmallVectorImpl.172", %"struct.llvm::SmallVectorStorage.175" }
%"class.llvm::SmallVectorImpl.172" = type { %"class.llvm::SmallVectorTemplateBase.173" }
%"class.llvm::SmallVectorTemplateBase.173" = type { %"class.llvm::SmallVectorTemplateCommon.174" }
%"class.llvm::SmallVectorTemplateCommon.174" = type { %"class.llvm::SmallVectorBase" }
%"struct.llvm::SmallVectorStorage.175" = type { [8 x i8] }

; Function Attrs: mustprogress nounwind uwtable
define linkonce_odr hidden noundef zeroext i1 @_ZNK4llvm22X86MachineFunctionInfo15padForPush2Pop2Ev(ptr noundef nonnull align 8 dereferenceable(272) %0) #1 comdat align 2 {
  %2 = alloca ptr, align 8
  store ptr %0, ptr %2, align 8
  %3 = load ptr, ptr %2, align 8
  %4 = getelementptr inbounds nuw %"class.llvm::X86MachineFunctionInfo", ptr %3, i32 0, i32 27
  %5 = load i8, ptr %4, align 1
  %6 = trunc i8 %5 to i1
  ret i1 %6
}

; Function Attrs: mustprogress nounwind uwtable
define linkonce_odr hidden noundef i32 @_ZNK4llvm22X86MachineFunctionInfo23getCalleeSavedFrameSizeEv(ptr noundef nonnull align 8 dereferenceable(272) %0) #1 comdat align 2 {
  %2 = alloca ptr, align 8
  store ptr %0, ptr %2, align 8
  %3 = load ptr, ptr %2, align 8
  %4 = getelementptr inbounds nuw %"class.llvm::X86MachineFunctionInfo", ptr %3, i32 0, i32 5
  %5 = load i32, ptr %4, align 8
  %6 = call noundef zeroext i1 @_ZNK4llvm22X86MachineFunctionInfo15padForPush2Pop2Ev(ptr noundef nonnull align 8 dereferenceable(272) %3)
  %7 = zext i1 %6 to i32
  %8 = mul nsw i32 8, %7
  %9 = add i32 %5, %8
  ret i32 %9
}

; Function Attrs: mustprogress nounwind uwtable
define linkonce_odr hidden noundef ptr @_ZNK4llvm15MachineFunction7getInfoINS_22X86MachineFunctionInfoEEEPKT_v(ptr noundef nonnull align 8 dereferenceable(1041) %0) #1 comdat align 2 {
  %2 = alloca ptr, align 8
  store ptr %0, ptr %2, align 8
  %3 = load ptr, ptr %2, align 8
  %4 = getelementptr inbounds nuw %"class.llvm::MachineFunction", ptr %3, i32 0, i32 5
  %5 = load ptr, ptr %4, align 8
  ret ptr %5
}

; Function Attrs: mustprogress nounwind uwtable
define dso_local noundef i32 @_ZNK4llvm16X86FrameLowering25getWinEHParentFrameOffsetERKNS_15MachineFunctionE(ptr noundef nonnull align 8 dereferenceable(60) %0, ptr noundef nonnull align 8 dereferenceable(1041) %1) unnamed_addr #1 align 2 {
  %3 = alloca ptr, align 8
  %4 = alloca ptr, align 8
  %5 = alloca i32, align 4
  store ptr %0, ptr %3, align 8
  store ptr %1, ptr %4, align 8
  %6 = load ptr, ptr %3, align 8
  store i32 16, ptr %5, align 4
  %7 = getelementptr inbounds nuw %"class.llvm::X86FrameLowering", ptr %6, i32 0, i32 5
  %8 = load i32, ptr %7, align 8
  %9 = load i32, ptr %5, align 4
  %10 = add i32 %9, %8
  store i32 %10, ptr %5, align 4
  %11 = load ptr, ptr %4, align 8
  %12 = call noundef ptr @_ZNK4llvm15MachineFunction7getInfoINS_22X86MachineFunctionInfoEEEPKT_v(ptr noundef nonnull align 8 dereferenceable(1041) %11)
  %13 = call noundef i32 @_ZNK4llvm22X86MachineFunctionInfo23getCalleeSavedFrameSizeEv(ptr noundef nonnull align 8 dereferenceable(272) %12)
  %14 = load i32, ptr %5, align 4
  %15 = add i32 %14, %13
  store i32 %15, ptr %5, align 4
  %16 = load ptr, ptr %4, align 8
  %17 = call noundef i32 @_ZNK4llvm16X86FrameLowering24getWinEHFuncletFrameSizeERKNS_15MachineFunctionE(ptr noundef nonnull align 8 dereferenceable(60) %6, ptr noundef nonnull align 8 dereferenceable(1041) %16)
  %18 = load i32, ptr %5, align 4
  %19 = add i32 %18, %17
  store i32 %19, ptr %5, align 4
  %20 = load i32, ptr %5, align 4
  ret i32 %20
}