; Function Attrs: mustprogress nounwind uwtable
define dso_local noundef i32 @_ZNK4llvm16X86FrameLowering25getWinEHParentFrameOffsetERKNS_15MachineFunctionE(ptr noundef nonnull align 8 dereferenceable(60) %0, ptr noundef nonnull align 8 dereferenceable(1041) %1) unnamed_addr #2 align 2 {
  %3 = getelementptr inbounds nuw i8, ptr %0, i64 48
  %4 = load i32, ptr %3, align 8
  %5 = getelementptr inbounds nuw i8, ptr %1, i64 40
  %6 = load ptr, ptr %5, align 8
  %7 = getelementptr inbounds nuw i8, ptr %6, i64 40
  %8 = load i32, ptr %7, align 8
  %9 = getelementptr inbounds nuw i8, ptr %6, i64 109
  %10 = load i8, ptr %9, align 1
  %11 = trunc i8 %10 to i1
  %12 = select i1 %11, i32 8, i32 0
  %13 = tail call noundef i32 @_ZNK4llvm16X86FrameLowering24getWinEHFuncletFrameSizeERKNS_15MachineFunctionE(ptr noundef nonnull align 8 dereferenceable(60) %0, ptr noundef nonnull align 8 dereferenceable(1041) %1)
  %14 = add i32 %4, 16
  %15 = add i32 %14, %8
  %16 = add i32 %15, %13
  %17 = add i32 %16, %12
  ret i32 %17
}